; Function Attrs: mustprogress sspstrong uwtable
define noundef zeroext i1 @_ZN4FLAC8Metadata9SeekTable13template_sortEb(ptr nocapture noundef nonnull readonly align 8 dereferenceable(17) %this, i1 noundef zeroext %compact) local_unnamed_addr #0 align 2 {
entry:
  %object_ = getelementptr inbounds i8, ptr %this, i64 8
  %0 = load ptr, ptr %object_, align 8
  %conv = zext i1 %compact to i32
  %call = tail call i32 @FLAC__metadata_object_seektable_template_sort(ptr noundef %0, i32 noundef %conv)
  %tobool2 = icmp ne i32 %call, 0
  ret i1 %tobool2
}